; Function Attrs: mustprogress nofree norecurse nosync nounwind willreturn memory(read, inaccessiblemem: none) uwtable
define range(i32 -1, 2) i32 @If_CutCompareDelay(ptr noundef readonly captures(none) %0, ptr noundef readonly captures(none) %1, ptr noundef readonly captures(none) %2) local_unnamed_addr #4 {
  %4 = load ptr, ptr %1, align 8, !tbaa !12
  %5 = load ptr, ptr %2, align 8, !tbaa !12
  %6 = getelementptr inbounds nuw i8, ptr %4, i64 12
  %7 = load float, ptr %6, align 4, !tbaa !54
  %8 = getelementptr inbounds nuw i8, ptr %5, i64 12
  %9 = load float, ptr %8, align 4, !tbaa !54
  %10 = getelementptr inbounds nuw i8, ptr %0, i64 88
  %11 = load float, ptr %10, align 8, !tbaa !55
  %12 = fsub float %9, %11
  %13 = fcmp olt float %7, %12
  br i1 %13, label %37, label %14

14:                                               ; preds = %3
  %15 = fadd float %9, %11
  %16 = fcmp ogt float %7, %15
  br i1 %16, label %37, label %17

17:                                               ; preds = %14
  %18 = getelementptr inbounds nuw i8, ptr %4, i64 28
  %19 = load i64, ptr %18, align 4
  %20 = trunc i64 %19 to i32
  %21 = lshr i32 %20, 24
  %22 = getelementptr inbounds nuw i8, ptr %5, i64 28
  %23 = load i64, ptr %22, align 4
  %24 = trunc i64 %23 to i32
  %25 = lshr i32 %24, 24
  %26 = icmp samesign ult i32 %21, %25
  br i1 %26, label %37, label %27

27:                                               ; preds = %17
  %28 = icmp samesign ugt i32 %21, %25
  br i1 %28, label %37, label %29

29:                                               ; preds = %27
  %30 = load float, ptr %4, align 4, !tbaa !56
  %31 = load float, ptr %5, align 4, !tbaa !56
  %32 = fsub float %31, %11
  %33 = fcmp olt float %30, %32
  br i1 %33, label %37, label %34

34:                                               ; preds = %29
  %35 = fadd float %11, %31
  %36 = fcmp ogt float %30, %35
  %. = zext i1 %36 to i32
  br label %37

37:                                               ; preds = %34, %29, %27, %17, %14, %3
  %.0 = phi i32 [ -1, %3 ], [ 1, %14 ], [ -1, %17 ], [ 1, %27 ], [ -1, %29 ], [ %., %34 ]
  ret i32 %.0
}